; Function Attrs: nounwind uwtable
define range(i32 -1, 1) i32 @H5VLfile_optional_op(ptr noundef %0, ptr noundef %1, i32 noundef %2, i64 noundef %3, ptr noundef %4, i64 noundef %5, i64 noundef %6) local_unnamed_addr #0 {
  %8 = alloca ptr, align 8
  %9 = alloca ptr, align 8
  %10 = alloca %struct.H5CX_node_t, align 8
  call void @llvm.lifetime.start.p0(i64 8, ptr nonnull %8) #7
  store ptr null, ptr %8, align 8, !tbaa !65
  call void @llvm.lifetime.start.p0(i64 8, ptr nonnull %9) #7
  store ptr null, ptr %9, align 8, !tbaa !40
  call void @llvm.lifetime.start.p0(i64 480, ptr nonnull %10) #7
  call void @llvm.memset.p0.i64(ptr noundef nonnull align 8 dereferenceable(480) %10, i8 0, i64 480, i1 false)
  %11 = load i8, ptr @H5_libinit_g, align 1, !tbaa !33, !range !35, !noundef !36
  %12 = trunc nuw i8 %11 to i1
  %13 = load i8, ptr @H5_libterm_g, align 1, !range !35
  %14 = trunc nuw i8 %13 to i1
  %15 = select i1 %12, i1 true, i1 %14
  br i1 %15, label %23, label %16, !prof !37

16:                                               ; preds = %7
  %17 = tail call i32 @H5_init_library() #7
  %18 = icmp slt i32 %17, 0
  br i1 %18, label %19, label %._crit_edge, !prof !43

._crit_edge:                                      ; preds = %16
  %.pre = load i8, ptr @H5_libterm_g, align 1, !range !35
  br label %23

19:                                               ; preds = %16
  %20 = load i64, ptr @H5E_FUNC_g, align 8, !tbaa !3
  %21 = load i64, ptr @H5E_CANTINIT_g, align 8, !tbaa !3
  %22 = tail call i32 (ptr, ptr, i32, i64, i64, ptr, ...) @H5E_printf_stack(ptr noundef nonnull @.str, ptr noundef nonnull @__func__.H5VLfile_optional_op, i32 noundef 4274, i64 noundef %20, i64 noundef %21, ptr noundef nonnull @.str.11) #7
  br label %.thread33

23:                                               ; preds = %._crit_edge, %7
  %24 = phi i8 [ %.pre, %._crit_edge ], [ %13, %7 ]
  %25 = load i8, ptr @H5VL_init_g, align 1, !tbaa !33, !range !35, !noundef !36
  %26 = trunc nuw i8 %25 to i1
  %27 = trunc nuw i8 %24 to i1
  %28 = select i1 %26, i1 true, i1 %27
  br i1 %28, label %36, label %29, !prof !37

29:                                               ; preds = %23
  store i8 1, ptr @H5VL_init_g, align 1, !tbaa !33
  %30 = tail call i32 @H5VL__init_package() #7
  %31 = icmp slt i32 %30, 0
  br i1 %31, label %32, label %36, !prof !41

32:                                               ; preds = %29
  store i8 0, ptr @H5VL_init_g, align 1, !tbaa !33
  %33 = load i64, ptr @H5E_FUNC_g, align 8, !tbaa !3
  %34 = load i64, ptr @H5E_CANTINIT_g, align 8, !tbaa !3
  %35 = tail call i32 (ptr, ptr, i32, i64, i64, ptr, ...) @H5E_printf_stack(ptr noundef nonnull @.str, ptr noundef nonnull @__func__.H5VLfile_optional_op, i32 noundef 4274, i64 noundef %33, i64 noundef %34, ptr noundef nonnull @.str.5) #7
  br label %.thread33

36:                                               ; preds = %23, %29
  %37 = call i32 @H5CX_push(ptr noundef nonnull %10) #7
  %38 = icmp slt i32 %37, 0
  br i1 %38, label %39, label %43, !prof !43

39:                                               ; preds = %36
  %40 = load i64, ptr @H5E_FUNC_g, align 8, !tbaa !3
  %41 = load i64, ptr @H5E_CANTSET_g, align 8, !tbaa !3
  %42 = call i32 (ptr, ptr, i32, i64, i64, ptr, ...) @H5E_printf_stack(ptr noundef nonnull @.str, ptr noundef nonnull @__func__.H5VLfile_optional_op, i32 noundef 4274, i64 noundef %40, i64 noundef %41, ptr noundef nonnull @.str.12) #7
  br label %.thread33

43:                                               ; preds = %36
  %44 = call i32 @H5E_clear_stack() #7
  %.not = icmp eq i64 %6, 0
  %spec.select = select i1 %.not, ptr null, ptr %9
  %45 = call fastcc i32 @H5VL__common_optional_op(i64 noundef %3, i32 noundef 1, ptr noundef nonnull @H5VL__file_optional, ptr noundef %4, i64 noundef %5, ptr noundef %spec.select, ptr noundef %8)
  %46 = icmp slt i32 %45, 0
  br i1 %46, label %47, label %51, !prof !44

47:                                               ; preds = %43
  %48 = load i64, ptr @H5E_VOL_g, align 8, !tbaa !3
  %49 = load i64, ptr @H5E_CANTOPERATE_g, align 8, !tbaa !3
  %50 = call i32 (ptr, ptr, i32, i64, i64, ptr, ...) @H5E_printf_stack(ptr noundef nonnull @.str, ptr noundef nonnull @__func__.H5VLfile_optional_op, i32 noundef 4283, i64 noundef %48, i64 noundef %49, ptr noundef nonnull @.str.97) #7
  br label %.thread39

51:                                               ; preds = %43
  %52 = load ptr, ptr %9, align 8, !tbaa !40
  %.not24 = icmp eq ptr %52, null
  br i1 %.not24, label %64, label %53

53:                                               ; preds = %51
  %54 = load ptr, ptr %8, align 8, !tbaa !65
  %55 = getelementptr inbounds nuw i8, ptr %54, i64 8
  %56 = load ptr, ptr %55, align 8, !tbaa !57
  %57 = call i32 (i64, ptr, ptr, ptr, ptr, ...) @H5ES_insert(i64 noundef %6, ptr noundef %56, ptr noundef nonnull %52, ptr noundef nonnull @__func__.H5VLfile_optional_op, ptr noundef nonnull @.str.39, ptr noundef nonnull @.str.40, ptr noundef %0, ptr noundef nonnull @.str.41, ptr noundef %1, ptr noundef nonnull @.str.42, i32 noundef %2, ptr noundef nonnull @.str.98, i64 noundef %3, ptr noundef nonnull @.str.44, ptr noundef %4, ptr noundef nonnull @.str.45, i64 noundef %5, ptr noundef nonnull @.str.46, i64 noundef %6) #7
  %58 = icmp slt i32 %57, 0
  br i1 %58, label %59, label %64, !prof !44

59:                                               ; preds = %53
  %60 = load i64, ptr @H5E_VOL_g, align 8, !tbaa !3
  %61 = load i64, ptr @H5E_CANTINSERT_g, align 8, !tbaa !3
  %62 = call i32 (ptr, ptr, i32, i64, i64, ptr, ...) @H5E_printf_stack(ptr noundef nonnull @.str, ptr noundef nonnull @__func__.H5VLfile_optional_op, i32 noundef 4291, i64 noundef %60, i64 noundef %61, ptr noundef nonnull @.str.47) #7
  br label %.thread39

.thread39:                                        ; preds = %59, %47
  %63 = call i32 @H5CX_pop(i1 noundef zeroext true) #7
  br label %.thread33

64:                                               ; preds = %51, %53
  %65 = call i32 @H5CX_pop(i1 noundef zeroext true) #7
  br label %67

.thread33:                                        ; preds = %39, %32, %19, %.thread39
  %66 = call i32 @H5E_dump_api_stack() #7
  br label %67

67:                                               ; preds = %64, %.thread33
  %.0212836 = phi i32 [ -1, %.thread33 ], [ 0, %64 ]
  call void @llvm.lifetime.end.p0(i64 480, ptr nonnull %10) #7
  call void @llvm.lifetime.end.p0(i64 8, ptr nonnull %9) #7
  call void @llvm.lifetime.end.p0(i64 8, ptr nonnull %8) #7
  ret i32 %.0212836
}